; ModuleID = 'bench/z3/original/inf_s_integer.ll'
source_filename = "bench/z3/original/inf_s_integer.ll"
target datalayout = "e-m:e-p270:32:32-p271:32:32-p272:64:64-i64:64-i128:128-f80:128-n8:16:32:64-S128"
target triple = "x86_64-pc-linux-gnu"

%"class.std::ios_base::Init" = type { i8 }
%class.inf_s_integer = type { i32, i32 }

@_ZStL8__ioinit = internal global %"class.std::ios_base::Init" zeroinitializer, align 1
@__dso_handle = external hidden global i8
@_ZN13inf_s_integer6m_zeroE = hidden local_unnamed_addr global %class.inf_s_integer zeroinitializer, align 4
@_ZN13inf_s_integer5m_oneE = hidden local_unnamed_addr global %class.inf_s_integer zeroinitializer, align 4
@_ZN13inf_s_integer11m_minus_oneE = hidden local_unnamed_addr global %class.inf_s_integer zeroinitializer, align 4
@llvm.global_ctors = appending global [1 x { i32, ptr, ptr }] [{ i32, ptr, ptr } { i32 65535, ptr @_GLOBAL__sub_I_inf_s_integer.cpp, ptr null }]

declare void @_ZNSt8ios_base4InitC1Ev(ptr noundef nonnull align 1 dereferenceable(1)) unnamed_addr #0

; Function Attrs: nounwind
declare void @_ZNSt8ios_base4InitD1Ev(ptr noundef nonnull align 1 dereferenceable(1)) unnamed_addr #1

; Function Attrs: nofree nounwind
declare i32 @__cxa_atexit(ptr, ptr, ptr) local_unnamed_addr #2

; Function Attrs: uwtable
define internal void @_GLOBAL__sub_I_inf_s_integer.cpp() #3 section ".text.startup" {
  tail call void @_ZNSt8ios_base4InitC1Ev(ptr noundef nonnull align 1 dereferenceable(1) @_ZStL8__ioinit)
  %1 = tail call i32 @__cxa_atexit(ptr nonnull @_ZNSt8ios_base4InitD1Ev, ptr nonnull @_ZStL8__ioinit, ptr nonnull @__dso_handle) #4
  store i32 0, ptr @_ZN13inf_s_integer6m_zeroE, align 4, !tbaa !3
  store i32 0, ptr getelementptr inbounds nuw (i8, ptr @_ZN13inf_s_integer6m_zeroE, i64 4), align 4, !tbaa !8
  store i32 1, ptr @_ZN13inf_s_integer5m_oneE, align 4, !tbaa !3
  store i32 0, ptr getelementptr inbounds nuw (i8, ptr @_ZN13inf_s_integer5m_oneE, i64 4), align 4, !tbaa !8
  store i32 -1, ptr @_ZN13inf_s_integer11m_minus_oneE, align 4, !tbaa !3
  store i32 0, ptr getelementptr inbounds nuw (i8, ptr @_ZN13inf_s_integer11m_minus_oneE, i64 4), align 4, !tbaa !8
  ret void
}


!llvm.linker.options = !{}
!llvm.module.flags = !{!0, !1, !2}

!0 = !{i32 1, !"wchar_size", i32 4}
!1 = !{i32 8, !"PIC Level", i32 2}
!2 = !{i32 7, !"uwtable", i32 2}
!3 = !{!4, !5, i64 0}
!4 = !{!"_ZTS13inf_s_integer", !5, i64 0, !5, i64 4}
!5 = !{!"int", !6, i64 0}
!6 = !{!"omnipotent char", !7, i64 0}
!7 = !{!"Simple C++ TBAA"}
!8 = !{!4, !5, i64 4}
